# SymbolsHelper-Confirmed: 6.0.0 amd64
libKF6KCMUtilsCore.so.6 libkf6kcmutilscore6 #MINVER#
* Build-Depends-Package: libkf6kcmutils-dev
 _ZN12KCModuleData11aboutToLoadENS_14QPrivateSignalE@Base 6.0.0
 _ZN12KCModuleData11qt_metacallEN11QMetaObject4CallEiPPv@Base 6.0.0
 _ZN12KCModuleData11qt_metacastEPKc@Base 6.0.0
 _ZN12KCModuleData16registerSkeletonEP19KCoreConfigSkeleton@Base 6.0.0
 _ZN12KCModuleData16revertToDefaultsEv@Base 6.0.0
 _ZN12KCModuleData16staticMetaObjectE@Base 6.0.0
 _ZN12KCModuleData21autoRegisterSkeletonsEv@Base 6.0.0
 _ZN12KCModuleData6loadedEv@Base 6.0.0
 _ZN12KCModuleDataC1EP7QObject@Base 6.0.0
 _ZN12KCModuleDataC2EP7QObject@Base 6.0.0
 _ZN12KCModuleDataD0Ev@Base 6.0.0
 _ZN12KCModuleDataD1Ev@Base 6.0.0
 _ZN12KCModuleDataD2Ev@Base 6.0.0
 _ZN12KPluginModel10addPluginsERK5QListI15KPluginMetaDataERK7QString@Base 6.0.0
 _ZN12KPluginModel11qt_metacallEN11QMetaObject4CallEiPPv@Base 6.0.0
 _ZN12KPluginModel11qt_metacastEPKc@Base 6.0.0
 _ZN12KPluginModel12isSaveNeededEv@Base 6.0.0
 _ZN12KPluginModel12removePluginERK15KPluginMetaData@Base 6.0.0
 _ZN12KPluginModel16staticMetaObjectE@Base 6.0.0
 _ZN12KPluginModel19isSaveNeededChangedEv@Base 6.0.0
 _ZN12KPluginModel20addUnsortablePluginsERK5QListI15KPluginMetaDataERK7QString@Base 6.0.0
 _ZN12KPluginModel24getOrderedCategoryLabelsEv@Base 6.0.0
 _ZN12KPluginModel4loadEv@Base 6.0.0
 _ZN12KPluginModel4saveEv@Base 6.0.0
 _ZN12KPluginModel5clearEv@Base 6.0.0
 _ZN12KPluginModel7setDataERK11QModelIndexRK8QVarianti@Base 6.0.0
 _ZN12KPluginModel8defaultsEv@Base 6.0.0
 _ZN12KPluginModel8moveRowsERK11QModelIndexiiS2_i@Base 6.0.0
 _ZN12KPluginModel9defaultedEb@Base 6.0.0
 _ZN12KPluginModel9setConfigERK12KConfigGroup@Base 6.0.0
 _ZN12KPluginModelC1EP7QObject@Base 6.0.0
 _ZN12KPluginModelC2EP7QObject@Base 6.0.0
 _ZN12KPluginModelD0Ev@Base 6.0.0
 _ZN12KPluginModelD1Ev@Base 6.0.0
 _ZN12KPluginModelD2Ev@Base 6.0.0
 _ZN21KAbstractConfigModule10setButtonsE6QFlagsINS_6ButtonEE@Base 6.0.0
 _ZN21KAbstractConfigModule11qt_metacallEN11QMetaObject4CallEiPPv@Base 6.0.0
 _ZN21KAbstractConfigModule11qt_metacastEPKc@Base 6.0.0
 _ZN21KAbstractConfigModule12setNeedsSaveEb@Base 6.0.0
 _ZN21KAbstractConfigModule14buttonsChangedEv@Base 6.0.0
 _ZN21KAbstractConfigModule16needsSaveChangedEv@Base 6.0.0
 _ZN21KAbstractConfigModule16staticMetaObjectE@Base 6.0.0
 _ZN21KAbstractConfigModule17setAuthActionNameERK7QString@Base 6.0.0
 _ZN21KAbstractConfigModule19activationRequestedERK5QListI8QVariantE@Base 6.0.0
 _ZN21KAbstractConfigModule21authActionNameChangedEv@Base 6.0.0
 _ZN21KAbstractConfigModule21setRepresentsDefaultsEb@Base 6.0.0
 _ZN21KAbstractConfigModule25representsDefaultsChangedEv@Base 6.0.0
 _ZN21KAbstractConfigModule28setDefaultsIndicatorsVisibleEb@Base 6.0.0
 _ZN21KAbstractConfigModule32defaultsIndicatorsVisibleChangedEv@Base 6.0.0
 _ZN21KAbstractConfigModule4loadEv@Base 6.0.0
 _ZN21KAbstractConfigModule4saveEv@Base 6.0.0
 _ZN21KAbstractConfigModule8defaultsEv@Base 6.0.0
 _ZN21KAbstractConfigModuleC1EP7QObjectRK15KPluginMetaData@Base 6.0.0
 _ZN21KAbstractConfigModuleC2EP7QObjectRK15KPluginMetaData@Base 6.0.0
 _ZN21KAbstractConfigModuleD0Ev@Base 6.0.0
 _ZN21KAbstractConfigModuleD1Ev@Base 6.0.0
 _ZN21KAbstractConfigModuleD2Ev@Base 6.0.0
 _ZNK12KCModuleData10isDefaultsEv@Base 6.0.0
 _ZNK12KCModuleData10metaObjectEv@Base 6.0.0
 _ZNK12KCModuleData12matchesQueryERK7QString@Base 6.0.0
 (optional=templinst)_ZNK12KConfigGroup9readEntryIbEET_PKcRKS1_@Base 6.0.0
 _ZNK12KPluginModel10metaObjectEv@Base 6.0.0
 _ZNK12KPluginModel21findConfigForPluginIdERK7QString@Base 6.0.0
 _ZNK12KPluginModel4dataERK11QModelIndexi@Base 6.0.0
 _ZNK12KPluginModel8rowCountERK11QModelIndex@Base 6.0.0
 _ZNK12KPluginModel9roleNamesEv@Base 6.0.0
 _ZNK21KAbstractConfigModule10metaObjectEv@Base 6.0.0
 _ZNK21KAbstractConfigModule11descriptionEv@Base 6.0.0
 _ZNK21KAbstractConfigModule14authActionNameEv@Base 6.0.0
 _ZNK21KAbstractConfigModule18needsAuthorizationEv@Base 6.0.0
 _ZNK21KAbstractConfigModule18representsDefaultsEv@Base 6.0.0
 _ZNK21KAbstractConfigModule25defaultsIndicatorsVisibleEv@Base 6.0.0
 _ZNK21KAbstractConfigModule4nameEv@Base 6.0.0
 _ZNK21KAbstractConfigModule7buttonsEv@Base 6.0.0
 _ZNK21KAbstractConfigModule8metaDataEv@Base 6.0.0
 _ZNK21KAbstractConfigModule9needsSaveEv@Base 6.0.0
 _ZTI12KCModuleData@Base 6.0.0
 _ZTI12KPluginModel@Base 6.0.0
 _ZTI21KAbstractConfigModule@Base 6.0.0
 _ZTS12KCModuleData@Base 6.0.0
 _ZTS12KPluginModel@Base 6.0.0
 _ZTS21KAbstractConfigModule@Base 6.0.0
 _ZTV12KCModuleData@Base 6.0.0
 _ZTV12KPluginModel@Base 6.0.0
 _ZTV21KAbstractConfigModule@Base 6.0.0
