# SymbolsHelper-Confirmed: 6.0.0 amd64
libKF6KCMUtils.so.6 libkf6kcmutils6 #MINVER#
* Build-Depends-Package: libkf6kcmutils-dev
 _ZN13KCMultiDialog10closeEventEP11QCloseEvent@Base 6.0.0
 _ZN13KCMultiDialog11qt_metacallEN11QMetaObject4CallEiPPv@Base 6.0.0
 _ZN13KCMultiDialog11qt_metacastEPKc@Base 6.0.0
 _ZN13KCMultiDialog13slotOkClickedEv@Base 6.0.0
 _ZN13KCMultiDialog15configCommittedEv@Base 6.0.0
 _ZN13KCMultiDialog15slotHelpClickedEv@Base 6.0.0
 _ZN13KCMultiDialog16slotApplyClickedEv@Base 6.0.0
 _ZN13KCMultiDialog16slotUser1ClickedEv@Base 6.0.0
 _ZN13KCMultiDialog16staticMetaObjectE@Base 6.0.0
 _ZN13KCMultiDialog18slotDefaultClickedEv@Base 6.0.0
 _ZN13KCMultiDialog28setDefaultsIndicatorsVisibleEb@Base 6.0.0
 _ZN13KCMultiDialog5clearEv@Base 6.0.0
 _ZN13KCMultiDialog9addModuleERK15KPluginMetaDataRK5QListI8QVariantE@Base 6.0.0
 _ZN13KCMultiDialog9showEventEP10QShowEvent@Base 6.0.0
 _ZN13KCMultiDialogC1EP7QWidget@Base 6.0.0
 _ZN13KCMultiDialogC2EP7QWidget@Base 6.0.0
 _ZN13KCMultiDialogD0Ev@Base 6.0.0
 _ZN13KCMultiDialogD1Ev@Base 6.0.0
 _ZN13KCMultiDialogD2Ev@Base 6.0.0
 _ZN13KPluginWidget10addPluginsERK5QListI15KPluginMetaDataERK7QString@Base 6.0.0
 _ZN13KPluginWidget11qt_metacallEN11QMetaObject4CallEiPPv@Base 6.0.0
 _ZN13KPluginWidget11qt_metacastEPKc@Base 6.0.0
 _ZN13KPluginWidget16staticMetaObjectE@Base 6.0.0
 _ZN13KPluginWidget17pluginConfigSavedERK7QString@Base 6.0.0
 _ZN13KPluginWidget17showConfigurationERK7QString@Base 6.0.0
 _ZN13KPluginWidget20pluginEnabledChangedERK7QStringb@Base 6.0.0
 _ZN13KPluginWidget25setConfigurationArgumentsERK5QListI8QVariantE@Base 6.0.0
 _ZN13KPluginWidget26setAdditionalButtonHandlerERKSt8functionIFP11QPushButtonRK15KPluginMetaDataEE@Base 6.0.0
 _ZN13KPluginWidget28setDefaultsIndicatorsVisibleEb@Base 6.0.0
 _ZN13KPluginWidget4loadEv@Base 6.0.0
 _ZN13KPluginWidget4saveEv@Base 6.0.0
 _ZN13KPluginWidget5clearEv@Base 6.0.0
 _ZN13KPluginWidget7changedEb@Base 6.0.0
 _ZN13KPluginWidget8defaultsEv@Base 6.0.0
 _ZN13KPluginWidget9defaultedEb@Base 6.0.0
 _ZN13KPluginWidget9setConfigERK12KConfigGroup@Base 6.0.0
 _ZN13KPluginWidgetC1EP7QWidget@Base 6.0.0
 _ZN13KPluginWidgetC2EP7QWidget@Base 6.0.0
 _ZN13KPluginWidgetD0Ev@Base 6.0.0
 _ZN13KPluginWidgetD1Ev@Base 6.0.0
 _ZN13KPluginWidgetD2Ev@Base 6.0.0
 _ZN14KCModuleLoader10loadModuleERK15KPluginMetaDataP7QWidgetRK5QListI8QVariantERKSt10shared_ptrI10QQmlEngineE@Base 6.0.0
 _ZN8KCModule11qt_metacallEN11QMetaObject4CallEiPPv@Base 6.0.0
 _ZN8KCModule11qt_metacastEPKc@Base 6.0.0
 _ZN8KCModule13widgetChangedEv@Base 6.0.0
 _ZN8KCModule16staticMetaObjectE@Base 6.0.0
 _ZN8KCModule26unmanagedWidgetChangeStateEb@Base 6.0.0
 _ZN8KCModule27unmanagedWidgetDefaultStateEb@Base 6.0.0
 _ZN8KCModule4loadEv@Base 6.0.0
 _ZN8KCModule4saveEv@Base 6.0.0
 _ZN8KCModule6widgetEv@Base 6.0.0
 _ZN8KCModule8defaultsEv@Base 6.0.0
 _ZN8KCModule9addConfigEP19KCoreConfigSkeletonP7QWidget@Base 6.0.0
 _ZN8KCModuleC1EP7QWidgetRK15KPluginMetaData@Base 6.0.0
 _ZN8KCModuleC2EP7QWidgetRK15KPluginMetaData@Base 6.0.0
 _ZN8KCModuleD0Ev@Base 6.0.0
 _ZN8KCModuleD1Ev@Base 6.0.0
 _ZN8KCModuleD2Ev@Base 6.0.0
 _ZNK13KCMultiDialog10metaObjectEv@Base 6.0.0
 _ZNK13KPluginWidget10metaObjectEv@Base 6.0.0
 _ZNK13KPluginWidget12isSaveNeededEv@Base 6.0.0
 _ZNK13KPluginWidget22configurationArgumentsEv@Base 6.0.0
 _ZNK13KPluginWidget9isDefaultEv@Base 6.0.0
 _ZNK8KCModule10metaObjectEv@Base 6.0.0
 _ZNK8KCModule24managedWidgetChangeStateEv@Base 6.0.0
 _ZNK8KCModule25managedWidgetDefaultStateEv@Base 6.0.0
 _ZNK8KCModule7configsEv@Base 6.0.0
 _ZTI13KCMultiDialog@Base 6.0.0
 _ZTI13KPluginWidget@Base 6.0.0
 _ZTI8KCModule@Base 6.0.0
 _ZTS13KCMultiDialog@Base 6.0.0
 _ZTS13KPluginWidget@Base 6.0.0
 _ZTS8KCModule@Base 6.0.0
 _ZTV13KCMultiDialog@Base 6.0.0
 _ZTV13KPluginWidget@Base 6.0.0
 _ZTV8KCModule@Base 6.0.0
 (c++)"non-virtual thunk to KCMultiDialog::~KCMultiDialog()@Base" 6.0.0
 (c++)"non-virtual thunk to KPluginWidget::~KPluginWidget()@Base" 6.0.0
